target datalayout = "e-m:e-p270:32:32-p271:32:32-p272:64:64-i64:64-i128:128-f80:128-n8:16:32:64-S128"
target triple = "x86_64-pc-linux-gnu"

%struct.ParallelExecutorInfo = type { ptr, ptr, ptr, ptr, ptr, ptr, ptr, i64, i8, ptr, ptr }
%struct.ParallelContext = type { %struct.dlist_node, i32, i32, i32, i32, ptr, ptr, ptr, %struct.shm_toc_estimator, ptr, ptr, ptr, ptr, i32, ptr }
%struct.dlist_node = type { ptr, ptr }
%struct.shm_toc_estimator = type { i64, i64 }
%struct.instr_time = type { i64 }
%struct.BufferUsage = type { i64, i64, i64, i64, i64, i64, i64, i64, i64, i64, %struct.instr_time, %struct.instr_time, %struct.instr_time, %struct.instr_time, %struct.instr_time, %struct.instr_time }
%struct.WalUsage = type { i64, i64, i64, i64 }

; Function Attrs: nounwind uwtable
define dso_local void @ExecParallelFinish(ptr noundef %0) #0 {
  %2 = alloca ptr, align 8
  %3 = alloca i32, align 4
  %4 = alloca i32, align 4
  %5 = alloca i32, align 4
  store ptr %0, ptr %2, align 8
  call void @llvm.lifetime.start.p0(i64 4, ptr %3) #8
  %6 = load ptr, ptr %2, align 8
  %7 = getelementptr inbounds nuw %struct.ParallelExecutorInfo, ptr %6, i32 0, i32 1
  %8 = load ptr, ptr %7, align 8
  %9 = getelementptr inbounds nuw %struct.ParallelContext, ptr %8, i32 0, i32 4
  %10 = load i32, ptr %9, align 4
  store i32 %10, ptr %3, align 4
  call void @llvm.lifetime.start.p0(i64 4, ptr %4) #8
  %11 = load ptr, ptr %2, align 8
  %12 = getelementptr inbounds nuw %struct.ParallelExecutorInfo, ptr %11, i32 0, i32 8
  %13 = load i8, ptr %12, align 8, !range !7, !noundef !8
  %14 = trunc i8 %13 to i1
  br i1 %14, label %15, label %16

15:                                               ; preds = %1
  store i32 1, ptr %5, align 4
  br label %97

16:                                               ; preds = %1
  %17 = load ptr, ptr %2, align 8
  %18 = getelementptr inbounds nuw %struct.ParallelExecutorInfo, ptr %17, i32 0, i32 9
  %19 = load ptr, ptr %18, align 8
  %20 = icmp ne ptr %19, null
  br i1 %20, label %21, label %43

21:                                               ; preds = %16
  store i32 0, ptr %4, align 4
  br label %22

22:                                               ; preds = %34, %21
  %23 = load i32, ptr %4, align 4
  %24 = load i32, ptr %3, align 4
  %25 = icmp slt i32 %23, %24
  br i1 %25, label %26, label %37

26:                                               ; preds = %22
  %27 = load ptr, ptr %2, align 8
  %28 = getelementptr inbounds nuw %struct.ParallelExecutorInfo, ptr %27, i32 0, i32 9
  %29 = load ptr, ptr %28, align 8
  %30 = load i32, ptr %4, align 4
  %31 = sext i32 %30 to i64
  %32 = getelementptr inbounds ptr, ptr %29, i64 %31
  %33 = load ptr, ptr %32, align 8
  call void @shm_mq_detach(ptr noundef %33)
  br label %34

34:                                               ; preds = %26
  %35 = load i32, ptr %4, align 4
  %36 = add i32 %35, 1
  store i32 %36, ptr %4, align 4
  br label %22, !llvm.loop !13

37:                                               ; preds = %22
  %38 = load ptr, ptr %2, align 8
  %39 = getelementptr inbounds nuw %struct.ParallelExecutorInfo, ptr %38, i32 0, i32 9
  %40 = load ptr, ptr %39, align 8
  call void @pfree(ptr noundef %40)
  %41 = load ptr, ptr %2, align 8
  %42 = getelementptr inbounds nuw %struct.ParallelExecutorInfo, ptr %41, i32 0, i32 9
  store ptr null, ptr %42, align 8
  br label %43

43:                                               ; preds = %37, %16
  %44 = load ptr, ptr %2, align 8
  %45 = getelementptr inbounds nuw %struct.ParallelExecutorInfo, ptr %44, i32 0, i32 10
  %46 = load ptr, ptr %45, align 8
  %47 = icmp ne ptr %46, null
  br i1 %47, label %48, label %70

48:                                               ; preds = %43
  store i32 0, ptr %4, align 4
  br label %49

49:                                               ; preds = %61, %48
  %50 = load i32, ptr %4, align 4
  %51 = load i32, ptr %3, align 4
  %52 = icmp slt i32 %50, %51
  br i1 %52, label %53, label %64

53:                                               ; preds = %49
  %54 = load ptr, ptr %2, align 8
  %55 = getelementptr inbounds nuw %struct.ParallelExecutorInfo, ptr %54, i32 0, i32 10
  %56 = load ptr, ptr %55, align 8
  %57 = load i32, ptr %4, align 4
  %58 = sext i32 %57 to i64
  %59 = getelementptr inbounds ptr, ptr %56, i64 %58
  %60 = load ptr, ptr %59, align 8
  call void @DestroyTupleQueueReader(ptr noundef %60)
  br label %61

61:                                               ; preds = %53
  %62 = load i32, ptr %4, align 4
  %63 = add i32 %62, 1
  store i32 %63, ptr %4, align 4
  br label %49, !llvm.loop !14

64:                                               ; preds = %49
  %65 = load ptr, ptr %2, align 8
  %66 = getelementptr inbounds nuw %struct.ParallelExecutorInfo, ptr %65, i32 0, i32 10
  %67 = load ptr, ptr %66, align 8
  call void @pfree(ptr noundef %67)
  %68 = load ptr, ptr %2, align 8
  %69 = getelementptr inbounds nuw %struct.ParallelExecutorInfo, ptr %68, i32 0, i32 10
  store ptr null, ptr %69, align 8
  br label %70

70:                                               ; preds = %64, %43
  %71 = load ptr, ptr %2, align 8
  %72 = getelementptr inbounds nuw %struct.ParallelExecutorInfo, ptr %71, i32 0, i32 1
  %73 = load ptr, ptr %72, align 8
  call void @WaitForParallelWorkersToFinish(ptr noundef %73)
  store i32 0, ptr %4, align 4
  br label %74

74:                                               ; preds = %91, %70
  %75 = load i32, ptr %4, align 4
  %76 = load i32, ptr %3, align 4
  %77 = icmp slt i32 %75, %76
  br i1 %77, label %78, label %94

78:                                               ; preds = %74
  %79 = load ptr, ptr %2, align 8
  %80 = getelementptr inbounds nuw %struct.ParallelExecutorInfo, ptr %79, i32 0, i32 2
  %81 = load ptr, ptr %80, align 8
  %82 = load i32, ptr %4, align 4
  %83 = sext i32 %82 to i64
  %84 = getelementptr inbounds %struct.BufferUsage, ptr %81, i64 %83
  %85 = load ptr, ptr %2, align 8
  %86 = getelementptr inbounds nuw %struct.ParallelExecutorInfo, ptr %85, i32 0, i32 3
  %87 = load ptr, ptr %86, align 8
  %88 = load i32, ptr %4, align 4
  %89 = sext i32 %88 to i64
  %90 = getelementptr inbounds %struct.WalUsage, ptr %87, i64 %89
  call void @InstrAccumParallelQuery(ptr noundef %84, ptr noundef %90)
  br label %91

91:                                               ; preds = %78
  %92 = load i32, ptr %4, align 4
  %93 = add i32 %92, 1
  store i32 %93, ptr %4, align 4
  br label %74, !llvm.loop !15

94:                                               ; preds = %74
  %95 = load ptr, ptr %2, align 8
  %96 = getelementptr inbounds nuw %struct.ParallelExecutorInfo, ptr %95, i32 0, i32 8
  store i8 1, ptr %96, align 8
  store i32 0, ptr %5, align 4
  br label %97

97:                                               ; preds = %94, %15
  call void @llvm.lifetime.end.p0(i64 4, ptr %4) #8
  call void @llvm.lifetime.end.p0(i64 4, ptr %3) #8
  %98 = load i32, ptr %5, align 4
  switch i32 %98, label %100 [
    i32 0, label %99
    i32 1, label %99
  ]

99:                                               ; preds = %97, %97
  ret void

100:                                              ; preds = %97
  unreachable
}