; Function Attrs: nounwind uwtable
define dso_local void @ExecParallelFinish(ptr noundef captures(none) %0) local_unnamed_addr #0 {
  %2 = getelementptr inbounds nuw i8, ptr %0, i64 8
  %3 = load ptr, ptr %2, align 8
  %4 = getelementptr inbounds nuw i8, ptr %3, i64 28
  %5 = load i32, ptr %4, align 4
  %6 = getelementptr inbounds nuw i8, ptr %0, i64 64
  %7 = load i8, ptr %6, align 8, !range !4, !noundef !5
  %8 = trunc nuw i8 %7 to i1
  br i1 %8, label %35, label %9

9:                                                ; preds = %1
  %10 = getelementptr inbounds nuw i8, ptr %0, i64 72
  %11 = load ptr, ptr %10, align 8
  %.not = icmp eq ptr %11, null
  br i1 %.not, label %17, label %.preheader27

.preheader27:                                     ; preds = %9
  %12 = icmp sgt i32 %5, 0
  br i1 %12, label %.lr.ph.preheader, label %._crit_edge

.lr.ph.preheader:                                 ; preds = %.preheader27
  %wide.trip.count = zext nneg i32 %5 to i64
  br label %.lr.ph

.lr.ph:                                           ; preds = %.lr.ph.preheader, %.lr.ph
  %indvars.iv = phi i64 [ 0, %.lr.ph.preheader ], [ %indvars.iv.next, %.lr.ph ]
  %13 = load ptr, ptr %10, align 8
  %14 = getelementptr inbounds nuw ptr, ptr %13, i64 %indvars.iv
  %15 = load ptr, ptr %14, align 8
  tail call void @shm_mq_detach(ptr noundef %15) #9
  %indvars.iv.next = add nuw nsw i64 %indvars.iv, 1
  %exitcond.not = icmp eq i64 %indvars.iv.next, %wide.trip.count
  br i1 %exitcond.not, label %._crit_edge.loopexit, label %.lr.ph, !llvm.loop !12

._crit_edge.loopexit:                             ; preds = %.lr.ph
  %.pre = load ptr, ptr %10, align 8
  br label %._crit_edge

._crit_edge:                                      ; preds = %._crit_edge.loopexit, %.preheader27
  %16 = phi ptr [ %.pre, %._crit_edge.loopexit ], [ %11, %.preheader27 ]
  tail call void @pfree(ptr noundef %16) #9
  store ptr null, ptr %10, align 8
  br label %17

17:                                               ; preds = %._crit_edge, %9
  %18 = getelementptr inbounds nuw i8, ptr %0, i64 80
  %19 = load ptr, ptr %18, align 8
  %.not26 = icmp eq ptr %19, null
  br i1 %.not26, label %25, label %.preheader

.preheader:                                       ; preds = %17
  %20 = icmp sgt i32 %5, 0
  br i1 %20, label %.lr.ph30.preheader, label %._crit_edge31

.lr.ph30.preheader:                               ; preds = %.preheader
  %wide.trip.count40 = zext nneg i32 %5 to i64
  br label %.lr.ph30

.lr.ph30:                                         ; preds = %.lr.ph30.preheader, %.lr.ph30
  %indvars.iv37 = phi i64 [ 0, %.lr.ph30.preheader ], [ %indvars.iv.next38, %.lr.ph30 ]
  %21 = load ptr, ptr %18, align 8
  %22 = getelementptr inbounds nuw ptr, ptr %21, i64 %indvars.iv37
  %23 = load ptr, ptr %22, align 8
  tail call void @DestroyTupleQueueReader(ptr noundef %23) #9
  %indvars.iv.next38 = add nuw nsw i64 %indvars.iv37, 1
  %exitcond41.not = icmp eq i64 %indvars.iv.next38, %wide.trip.count40
  br i1 %exitcond41.not, label %._crit_edge31.loopexit, label %.lr.ph30, !llvm.loop !13

._crit_edge31.loopexit:                           ; preds = %.lr.ph30
  %.pre47 = load ptr, ptr %18, align 8
  br label %._crit_edge31

._crit_edge31:                                    ; preds = %._crit_edge31.loopexit, %.preheader
  %24 = phi ptr [ %.pre47, %._crit_edge31.loopexit ], [ %19, %.preheader ]
  tail call void @pfree(ptr noundef %24) #9
  store ptr null, ptr %18, align 8
  br label %25

25:                                               ; preds = %._crit_edge31, %17
  %26 = load ptr, ptr %2, align 8
  tail call void @WaitForParallelWorkersToFinish(ptr noundef %26) #9
  %27 = icmp sgt i32 %5, 0
  br i1 %27, label %.lr.ph34, label %._crit_edge35

.lr.ph34:                                         ; preds = %25
  %28 = getelementptr inbounds nuw i8, ptr %0, i64 16
  %29 = getelementptr inbounds nuw i8, ptr %0, i64 24
  %wide.trip.count45 = zext nneg i32 %5 to i64
  br label %30

30:                                               ; preds = %.lr.ph34, %30
  %indvars.iv42 = phi i64 [ 0, %.lr.ph34 ], [ %indvars.iv.next43, %30 ]
  %31 = load ptr, ptr %28, align 8
  %32 = getelementptr inbounds nuw %struct.BufferUsage, ptr %31, i64 %indvars.iv42
  %33 = load ptr, ptr %29, align 8
  %34 = getelementptr inbounds nuw %struct.WalUsage, ptr %33, i64 %indvars.iv42
  tail call void @InstrAccumParallelQuery(ptr noundef %32, ptr noundef %34) #9
  %indvars.iv.next43 = add nuw nsw i64 %indvars.iv42, 1
  %exitcond46.not = icmp eq i64 %indvars.iv.next43, %wide.trip.count45
  br i1 %exitcond46.not, label %._crit_edge35, label %30, !llvm.loop !14

._crit_edge35:                                    ; preds = %30, %25
  store i8 1, ptr %6, align 8
  br label %35

35:                                               ; preds = %1, %._crit_edge35
  ret void
}